; Function Attrs: mustprogress uwtable
define internal void @_ZN7rocksdb4test12_GLOBAL__N_118SpecialMemTableRep3GetERKNS_9LookupKeyEPvPFbS6_PKcE(ptr noundef nonnull readonly align 8 captures(none) dereferenceable(32) %0, ptr noundef nonnull align 8 dereferenceable(224) %1, ptr noundef %2, ptr noundef %3) unnamed_addr #7 align 2 {
  %5 = getelementptr inbounds nuw i8, ptr %0, i64 16
  %6 = load ptr, ptr %5, align 8, !tbaa !576
  %7 = load ptr, ptr %6, align 8, !tbaa !25
  %8 = getelementptr inbounds nuw i8, ptr %7, i64 96
  %9 = load ptr, ptr %8, align 8
  tail call void %9(ptr noundef nonnull align 8 dereferenceable(16) %6, ptr noundef nonnull align 8 dereferenceable(224) %1, ptr noundef %2, ptr noundef %3)
  ret void
}